target datalayout = "e-m:e-p270:32:32-p271:32:32-p272:64:64-i64:64-i128:128-f80:128-n8:16:32:64-S128"
target triple = "x86_64-unknown-linux-gnu"

%class.rational = type { %class.mpq }
%class.mpq = type { %class.mpz, %class.mpz }
%class.mpz = type { i32, i8, ptr }
%"struct.nla::common" = type { ptr, %"class.nla::nex_creator" }
%"class.nla::nex_creator" = type { %class.ptr_vector, %"class.std::unordered_map", %"class.std::unordered_map.2", %class.svector, %"class.nla::nex_creator::mul_factory" }
%class.ptr_vector = type { %class.vector }
%class.vector = type { ptr }
%"class.std::unordered_map" = type { %"class.std::_Hashtable" }
%"class.std::_Hashtable" = type { ptr, i64, %"struct.std::__detail::_Hash_node_base", i64, %"struct.std::__detail::_Prime_rehash_policy", ptr }
%"struct.std::__detail::_Hash_node_base" = type { ptr }
%"struct.std::__detail::_Prime_rehash_policy" = type { float, i64 }
%"class.std::unordered_map.2" = type { %"class.std::_Hashtable.3" }
%"class.std::_Hashtable.3" = type { ptr, i64, %"struct.std::__detail::_Hash_node_base", i64, %"struct.std::__detail::_Prime_rehash_policy", ptr }
%class.svector = type { %class.vector.16 }
%class.vector.16 = type { ptr }
%"class.nla::nex_creator::mul_factory" = type { ptr, %class.rational, %class.vector.17 }
%class.vector.17 = type { ptr }
%"class.nla::mon_eq" = type { i32, %class.svector }
%"class.nla::new_lemma" = type { ptr, ptr }
%"class.nla::ineq" = type { i32, [4 x i8], %"class.lp::lar_term", %class.rational }
%"class.lp::lar_term" = type { %class.u_map }
%class.u_map = type { %class.map.83 }
%class.map.83 = type { %class.table2map.84 }
%class.table2map.84 = type { %class.core_hashtable.85 }
%class.core_hashtable.85 = type <{ ptr, i32, i32, i32, [4 x i8] }>

@.str.4 = private unnamed_addr constant [17 x i8] c"x = 0 => x*y = 0\00", align 1

; Function Attrs: mustprogress nounwind uwtable
define linkonce_odr hidden noundef i32 @_ZNK3nla6mon_eq3varEv(ptr noundef nonnull align 8 dereferenceable(16) %this) #4 comdat align 2 {
entry:
  %this.addr = alloca ptr, align 8
  store ptr %this, ptr %this.addr, align 8
  %this1 = load ptr, ptr %this.addr, align 8
  %m_v = getelementptr inbounds %"class.nla::mon_eq", ptr %this1, i32 0, i32 0
  %0 = load i32, ptr %m_v, align 8
  ret i32 %0
}

; Function Attrs: mustprogress nounwind uwtable
define linkonce_odr hidden noundef nonnull align 8 dereferenceable(4720) ptr @_ZN3nla6common1cEv(ptr noundef nonnull align 8 dereferenceable(184) %this) #4 comdat align 2 {
entry:
  %this.addr = alloca ptr, align 8
  store ptr %this, ptr %this.addr, align 8
  %this1 = load ptr, ptr %this.addr, align 8
  %m_core = getelementptr inbounds %"struct.nla::common", ptr %this1, i32 0, i32 0
  %0 = load ptr, ptr %m_core, align 8
  ret ptr %0
}

; Function Attrs: mustprogress uwtable
define hidden void @_ZN3nla6basics22add_trivial_zero_lemmaEjRKNS_5monicE(ptr noundef nonnull align 8 dereferenceable(184) %this, i32 noundef %zero_j, ptr noundef nonnull align 8 dereferenceable(34) %m) #5 align 2 personality ptr @__gxx_personality_v0 {
entry:
  %this.addr = alloca ptr, align 8
  %zero_j.addr = alloca i32, align 4
  %m.addr = alloca ptr, align 8
  %lemma = alloca %"class.nla::new_lemma", align 8
  %ref.tmp = alloca %"class.nla::ineq", align 8
  %exn.slot = alloca ptr, align 8
  %ehselector.slot = alloca i32, align 4
  %ref.tmp5 = alloca %"class.nla::ineq", align 8
  store ptr %this, ptr %this.addr, align 8
  store i32 %zero_j, ptr %zero_j.addr, align 4
  store ptr %m, ptr %m.addr, align 8
  %this1 = load ptr, ptr %this.addr, align 8
  %call = call noundef nonnull align 8 dereferenceable(4720) ptr @_ZN3nla6common1cEv(ptr noundef nonnull align 8 dereferenceable(184) %this1)
  call void @_ZN3nla9new_lemmaC1ERNS_4coreEPKc(ptr noundef nonnull align 8 dereferenceable(16) %lemma, ptr noundef nonnull align 8 dereferenceable(4720) %call, ptr noundef @.str.4)
  %0 = load i32, ptr %zero_j.addr, align 4
  invoke void @_ZN3nla4ineqC2EjN2lp16lconstraint_kindEi(ptr noundef nonnull align 8 dereferenceable(64) %ref.tmp, i32 noundef %0, i32 noundef 3, i32 noundef 0)
          to label %invoke.cont unwind label %lpad

invoke.cont:                                      ; preds = %entry
  %call4 = invoke noundef nonnull align 8 dereferenceable(16) ptr @_ZN3nla9new_lemmaoRERKNS_4ineqE(ptr noundef nonnull align 8 dereferenceable(16) %lemma, ptr noundef nonnull align 8 dereferenceable(64) %ref.tmp)
          to label %invoke.cont3 unwind label %lpad2

invoke.cont3:                                     ; preds = %invoke.cont
  call void @_ZN3nla4ineqD2Ev(ptr noundef nonnull align 8 dereferenceable(64) %ref.tmp) #3
  %1 = load ptr, ptr %m.addr, align 8
  %call7 = invoke noundef i32 @_ZNK3nla6mon_eq3varEv(ptr noundef nonnull align 8 dereferenceable(16) %1)
          to label %invoke.cont6 unwind label %lpad

invoke.cont6:                                     ; preds = %invoke.cont3
  invoke void @_ZN3nla4ineqC2EjN2lp16lconstraint_kindEi(ptr noundef nonnull align 8 dereferenceable(64) %ref.tmp5, i32 noundef %call7, i32 noundef 0, i32 noundef 0)
          to label %invoke.cont8 unwind label %lpad

invoke.cont8:                                     ; preds = %invoke.cont6
  %call11 = invoke noundef nonnull align 8 dereferenceable(16) ptr @_ZN3nla9new_lemmaoRERKNS_4ineqE(ptr noundef nonnull align 8 dereferenceable(16) %lemma, ptr noundef nonnull align 8 dereferenceable(64) %ref.tmp5)
          to label %invoke.cont10 unwind label %lpad9

invoke.cont10:                                    ; preds = %invoke.cont8
  call void @_ZN3nla4ineqD2Ev(ptr noundef nonnull align 8 dereferenceable(64) %ref.tmp5) #3
  call void @_ZN3nla9new_lemmaD1Ev(ptr noundef nonnull align 8 dereferenceable(16) %lemma) #3
  ret void

lpad:                                             ; preds = %invoke.cont6, %invoke.cont3, %entry
  %2 = landingpad { ptr, i32 }
          cleanup
  %3 = extractvalue { ptr, i32 } %2, 0
  store ptr %3, ptr %exn.slot, align 8
  %4 = extractvalue { ptr, i32 } %2, 1
  store i32 %4, ptr %ehselector.slot, align 4
  br label %ehcleanup

lpad2:                                            ; preds = %invoke.cont
  %5 = landingpad { ptr, i32 }
          cleanup
  %6 = extractvalue { ptr, i32 } %5, 0
  store ptr %6, ptr %exn.slot, align 8
  %7 = extractvalue { ptr, i32 } %5, 1
  store i32 %7, ptr %ehselector.slot, align 4
  call void @_ZN3nla4ineqD2Ev(ptr noundef nonnull align 8 dereferenceable(64) %ref.tmp) #3
  br label %ehcleanup

lpad9:                                            ; preds = %invoke.cont8
  %8 = landingpad { ptr, i32 }
          cleanup
  %9 = extractvalue { ptr, i32 } %8, 0
  store ptr %9, ptr %exn.slot, align 8
  %10 = extractvalue { ptr, i32 } %8, 1
  store i32 %10, ptr %ehselector.slot, align 4
  call void @_ZN3nla4ineqD2Ev(ptr noundef nonnull align 8 dereferenceable(64) %ref.tmp5) #3
  br label %ehcleanup

ehcleanup:                                        ; preds = %lpad9, %lpad2, %lpad
  call void @_ZN3nla9new_lemmaD1Ev(ptr noundef nonnull align 8 dereferenceable(16) %lemma) #3
  br label %eh.resume

eh.resume:                                        ; preds = %ehcleanup
  %exn = load ptr, ptr %exn.slot, align 8
  %sel = load i32, ptr %ehselector.slot, align 4
  %lpad.val = insertvalue { ptr, i32 } poison, ptr %exn, 0
  %lpad.val12 = insertvalue { ptr, i32 } %lpad.val, i32 %sel, 1
  resume { ptr, i32 } %lpad.val12
}