; Function Attrs: mustprogress uwtable
define hidden void @_ZN3nla6basics22add_trivial_zero_lemmaEjRKNS_5monicE(ptr nocapture noundef nonnull readonly align 8 dereferenceable(184) %this, i32 noundef %zero_j, ptr nocapture noundef nonnull readonly align 8 dereferenceable(34) %m) local_unnamed_addr #3 align 2 personality ptr @__gxx_personality_v0 {
entry:
  %lemma = alloca %"class.nla::new_lemma", align 8
  %ref.tmp = alloca %"class.nla::ineq", align 8
  %ref.tmp5 = alloca %"class.nla::ineq", align 8
  %0 = load ptr, ptr %this, align 8
  call void @_ZN3nla9new_lemmaC1ERNS_4coreEPKc(ptr noundef nonnull align 8 dereferenceable(16) %lemma, ptr noundef nonnull align 8 dereferenceable(4720) %0, ptr noundef nonnull @.str.4)
  invoke void @_ZN3nla4ineqC2EjN2lp16lconstraint_kindEi(ptr noundef nonnull align 8 dereferenceable(64) %ref.tmp, i32 noundef %zero_j, i32 noundef 3, i32 noundef 0)
          to label %invoke.cont unwind label %lpad

invoke.cont:                                      ; preds = %entry
  %call4 = invoke noundef nonnull align 8 dereferenceable(16) ptr @_ZN3nla9new_lemmaoRERKNS_4ineqE(ptr noundef nonnull align 8 dereferenceable(16) %lemma, ptr noundef nonnull align 8 dereferenceable(64) %ref.tmp)
          to label %invoke.cont3 unwind label %lpad2

invoke.cont3:                                     ; preds = %invoke.cont
  call void @_ZN3nla4ineqD2Ev(ptr noundef nonnull align 8 dereferenceable(64) %ref.tmp) #17
  %1 = load i32, ptr %m, align 8
  invoke void @_ZN3nla4ineqC2EjN2lp16lconstraint_kindEi(ptr noundef nonnull align 8 dereferenceable(64) %ref.tmp5, i32 noundef %1, i32 noundef 0, i32 noundef 0)
          to label %invoke.cont8 unwind label %lpad

invoke.cont8:                                     ; preds = %invoke.cont3
  %call11 = invoke noundef nonnull align 8 dereferenceable(16) ptr @_ZN3nla9new_lemmaoRERKNS_4ineqE(ptr noundef nonnull align 8 dereferenceable(16) %lemma, ptr noundef nonnull align 8 dereferenceable(64) %ref.tmp5)
          to label %invoke.cont10 unwind label %lpad9

invoke.cont10:                                    ; preds = %invoke.cont8
  call void @_ZN3nla4ineqD2Ev(ptr noundef nonnull align 8 dereferenceable(64) %ref.tmp5) #17
  call void @_ZN3nla9new_lemmaD1Ev(ptr noundef nonnull align 8 dereferenceable(16) %lemma) #17
  ret void

lpad:                                             ; preds = %invoke.cont3, %entry
  %2 = landingpad { ptr, i32 }
          cleanup
  br label %ehcleanup

lpad2:                                            ; preds = %invoke.cont
  %3 = landingpad { ptr, i32 }
          cleanup
  call void @_ZN3nla4ineqD2Ev(ptr noundef nonnull align 8 dereferenceable(64) %ref.tmp) #17
  br label %ehcleanup

lpad9:                                            ; preds = %invoke.cont8
  %4 = landingpad { ptr, i32 }
          cleanup
  call void @_ZN3nla4ineqD2Ev(ptr noundef nonnull align 8 dereferenceable(64) %ref.tmp5) #17
  br label %ehcleanup

ehcleanup:                                        ; preds = %lpad9, %lpad2, %lpad
  %.pn = phi { ptr, i32 } [ %4, %lpad9 ], [ %2, %lpad ], [ %3, %lpad2 ]
  call void @_ZN3nla9new_lemmaD1Ev(ptr noundef nonnull align 8 dereferenceable(16) %lemma) #17
  resume { ptr, i32 } %.pn
}